target datalayout = "e-m:e-p270:32:32-p271:32:32-p272:64:64-i64:64-i128:128-f80:128-n8:16:32:64-S128"
target triple = "x86_64-pc-linux-gnu"

%struct.DdManager = type { %struct.DdNode, ptr, ptr, ptr, ptr, ptr, ptr, ptr, i32, i32, double, double, double, i32, i32, i32, i32, i32, i32, ptr, ptr, %struct.DdSubtable, i32, i32, i32, i32, i32, i32, i32, double, i32, i32, i32, ptr, i64, double, i32, ptr, ptr, ptr, ptr, ptr, ptr, ptr, i32, ptr, ptr, ptr, ptr, ptr, ptr, i32, i32, i32, double, i32, i32, i32, i32, double, double, i32, i32, i32, i32, i32, i32, i32, i32, i32, ptr, ptr, i32, i32, i32, i32, i32, i32, ptr, ptr, ptr, ptr, ptr, ptr, ptr, ptr, i32, i64, i64, i64, i32, i64, i64, double, double, double, double, double, double, i32, ptr, ptr, i64 }
%struct.DdNode = type { i32, i32, ptr, %union.anon, i64 }
%union.anon = type { %struct.DdChildren }
%struct.DdChildren = type { ptr, ptr }
%struct.DdSubtable = type { ptr, i32, i32, i32, i32, i32, i32, i32, i32, i32, i32, i32 }

; Function Attrs: nounwind uwtable
define ptr @cuddAddApplyRecur(ptr noundef %0, ptr noundef %1, ptr noundef %2, ptr noundef %3) #0 {
  %5 = alloca ptr, align 8
  %6 = alloca ptr, align 8
  %7 = alloca ptr, align 8
  %8 = alloca ptr, align 8
  %9 = alloca ptr, align 8
  %10 = alloca ptr, align 8
  %11 = alloca ptr, align 8
  %12 = alloca ptr, align 8
  %13 = alloca ptr, align 8
  %14 = alloca ptr, align 8
  %15 = alloca ptr, align 8
  %16 = alloca ptr, align 8
  %17 = alloca i32, align 4
  %18 = alloca i32, align 4
  %19 = alloca i32, align 4
  %20 = alloca ptr, align 8
  %21 = alloca i32, align 4
  store ptr %0, ptr %6, align 8, !tbaa !3
  store ptr %1, ptr %7, align 8, !tbaa !8
  store ptr %2, ptr %8, align 8, !tbaa !9
  store ptr %3, ptr %9, align 8, !tbaa !9
  call void @llvm.lifetime.start.p0(i64 8, ptr %10) #4
  call void @llvm.lifetime.start.p0(i64 8, ptr %11) #4
  call void @llvm.lifetime.start.p0(i64 8, ptr %12) #4
  call void @llvm.lifetime.start.p0(i64 8, ptr %13) #4
  call void @llvm.lifetime.start.p0(i64 8, ptr %14) #4
  call void @llvm.lifetime.start.p0(i64 8, ptr %15) #4
  call void @llvm.lifetime.start.p0(i64 8, ptr %16) #4
  call void @llvm.lifetime.start.p0(i64 4, ptr %17) #4
  call void @llvm.lifetime.start.p0(i64 4, ptr %18) #4
  call void @llvm.lifetime.start.p0(i64 4, ptr %19) #4
  call void @llvm.lifetime.start.p0(i64 8, ptr %20) #4
  %22 = load ptr, ptr %7, align 8, !tbaa !8
  %23 = load ptr, ptr %6, align 8, !tbaa !3
  %24 = call ptr %22(ptr noundef %23, ptr noundef %8, ptr noundef %9)
  store ptr %24, ptr %10, align 8, !tbaa !9
  %25 = load ptr, ptr %10, align 8, !tbaa !9
  %26 = icmp ne ptr %25, null
  br i1 %26, label %27, label %29

27:                                               ; preds = %4
  %28 = load ptr, ptr %10, align 8, !tbaa !9
  store ptr %28, ptr %5, align 8
  store i32 1, ptr %21, align 4
  br label %192

29:                                               ; preds = %4
  %30 = load ptr, ptr %7, align 8, !tbaa !8
  store ptr %30, ptr %20, align 8, !tbaa !8
  %31 = load ptr, ptr %6, align 8, !tbaa !3
  %32 = load ptr, ptr %20, align 8, !tbaa !8
  %33 = load ptr, ptr %8, align 8, !tbaa !9
  %34 = load ptr, ptr %9, align 8, !tbaa !9
  %35 = call ptr @cuddCacheLookup2(ptr noundef %31, ptr noundef %32, ptr noundef %33, ptr noundef %34)
  store ptr %35, ptr %10, align 8, !tbaa !9
  %36 = load ptr, ptr %10, align 8, !tbaa !9
  %37 = icmp ne ptr %36, null
  br i1 %37, label %38, label %40

38:                                               ; preds = %29
  %39 = load ptr, ptr %10, align 8, !tbaa !9
  store ptr %39, ptr %5, align 8
  store i32 1, ptr %21, align 4
  br label %192

40:                                               ; preds = %29
  %41 = load ptr, ptr %8, align 8, !tbaa !9
  %42 = getelementptr inbounds nuw %struct.DdNode, ptr %41, i32 0, i32 0
  %43 = load i32, ptr %42, align 8, !tbaa !30
  %44 = icmp eq i32 %43, 2147483647
  br i1 %44, label %45, label %49

45:                                               ; preds = %40
  %46 = load ptr, ptr %8, align 8, !tbaa !9
  %47 = getelementptr inbounds nuw %struct.DdNode, ptr %46, i32 0, i32 0
  %48 = load i32, ptr %47, align 8, !tbaa !30
  br label %59

49:                                               ; preds = %40
  %50 = load ptr, ptr %6, align 8, !tbaa !3
  %51 = getelementptr inbounds nuw %struct.DdManager, ptr %50, i32 0, i32 37
  %52 = load ptr, ptr %51, align 8, !tbaa !31
  %53 = load ptr, ptr %8, align 8, !tbaa !9
  %54 = getelementptr inbounds nuw %struct.DdNode, ptr %53, i32 0, i32 0
  %55 = load i32, ptr %54, align 8, !tbaa !30
  %56 = zext i32 %55 to i64
  %57 = getelementptr inbounds nuw i32, ptr %52, i64 %56
  %58 = load i32, ptr %57, align 4, !tbaa !32
  br label %59

59:                                               ; preds = %49, %45
  %60 = phi i32 [ %48, %45 ], [ %58, %49 ]
  store i32 %60, ptr %17, align 4, !tbaa !32
  %61 = load ptr, ptr %9, align 8, !tbaa !9
  %62 = getelementptr inbounds nuw %struct.DdNode, ptr %61, i32 0, i32 0
  %63 = load i32, ptr %62, align 8, !tbaa !30
  %64 = icmp eq i32 %63, 2147483647
  br i1 %64, label %65, label %69

65:                                               ; preds = %59
  %66 = load ptr, ptr %9, align 8, !tbaa !9
  %67 = getelementptr inbounds nuw %struct.DdNode, ptr %66, i32 0, i32 0
  %68 = load i32, ptr %67, align 8, !tbaa !30
  br label %79

69:                                               ; preds = %59
  %70 = load ptr, ptr %6, align 8, !tbaa !3
  %71 = getelementptr inbounds nuw %struct.DdManager, ptr %70, i32 0, i32 37
  %72 = load ptr, ptr %71, align 8, !tbaa !31
  %73 = load ptr, ptr %9, align 8, !tbaa !9
  %74 = getelementptr inbounds nuw %struct.DdNode, ptr %73, i32 0, i32 0
  %75 = load i32, ptr %74, align 8, !tbaa !30
  %76 = zext i32 %75 to i64
  %77 = getelementptr inbounds nuw i32, ptr %72, i64 %76
  %78 = load i32, ptr %77, align 4, !tbaa !32
  br label %79

79:                                               ; preds = %69, %65
  %80 = phi i32 [ %68, %65 ], [ %78, %69 ]
  store i32 %80, ptr %18, align 4, !tbaa !32
  %81 = load i32, ptr %17, align 4, !tbaa !32
  %82 = load i32, ptr %18, align 4, !tbaa !32
  %83 = icmp ule i32 %81, %82
  br i1 %83, label %84, label %96

84:                                               ; preds = %79
  %85 = load ptr, ptr %8, align 8, !tbaa !9
  %86 = getelementptr inbounds nuw %struct.DdNode, ptr %85, i32 0, i32 0
  %87 = load i32, ptr %86, align 8, !tbaa !30
  store i32 %87, ptr %19, align 4, !tbaa !32
  %88 = load ptr, ptr %8, align 8, !tbaa !9
  %89 = getelementptr inbounds nuw %struct.DdNode, ptr %88, i32 0, i32 3
  %90 = getelementptr inbounds nuw %struct.DdChildren, ptr %89, i32 0, i32 0
  %91 = load ptr, ptr %90, align 8, !tbaa !33
  store ptr %91, ptr %11, align 8, !tbaa !9
  %92 = load ptr, ptr %8, align 8, !tbaa !9
  %93 = getelementptr inbounds nuw %struct.DdNode, ptr %92, i32 0, i32 3
  %94 = getelementptr inbounds nuw %struct.DdChildren, ptr %93, i32 0, i32 1
  %95 = load ptr, ptr %94, align 8, !tbaa !33
  store ptr %95, ptr %12, align 8, !tbaa !9
  br label %101

96:                                               ; preds = %79
  %97 = load ptr, ptr %9, align 8, !tbaa !9
  %98 = getelementptr inbounds nuw %struct.DdNode, ptr %97, i32 0, i32 0
  %99 = load i32, ptr %98, align 8, !tbaa !30
  store i32 %99, ptr %19, align 4, !tbaa !32
  %100 = load ptr, ptr %8, align 8, !tbaa !9
  store ptr %100, ptr %12, align 8, !tbaa !9
  store ptr %100, ptr %11, align 8, !tbaa !9
  br label %101

101:                                              ; preds = %96, %84
  %102 = load i32, ptr %18, align 4, !tbaa !32
  %103 = load i32, ptr %17, align 4, !tbaa !32
  %104 = icmp ule i32 %102, %103
  br i1 %104, label %105, label %114

105:                                              ; preds = %101
  %106 = load ptr, ptr %9, align 8, !tbaa !9
  %107 = getelementptr inbounds nuw %struct.DdNode, ptr %106, i32 0, i32 3
  %108 = getelementptr inbounds nuw %struct.DdChildren, ptr %107, i32 0, i32 0
  %109 = load ptr, ptr %108, align 8, !tbaa !33
  store ptr %109, ptr %13, align 8, !tbaa !9
  %110 = load ptr, ptr %9, align 8, !tbaa !9
  %111 = getelementptr inbounds nuw %struct.DdNode, ptr %110, i32 0, i32 3
  %112 = getelementptr inbounds nuw %struct.DdChildren, ptr %111, i32 0, i32 1
  %113 = load ptr, ptr %112, align 8, !tbaa !33
  store ptr %113, ptr %14, align 8, !tbaa !9
  br label %116

114:                                              ; preds = %101
  %115 = load ptr, ptr %9, align 8, !tbaa !9
  store ptr %115, ptr %14, align 8, !tbaa !9
  store ptr %115, ptr %13, align 8, !tbaa !9
  br label %116

116:                                              ; preds = %114, %105
  %117 = load ptr, ptr %6, align 8, !tbaa !3
  %118 = load ptr, ptr %7, align 8, !tbaa !8
  %119 = load ptr, ptr %11, align 8, !tbaa !9
  %120 = load ptr, ptr %13, align 8, !tbaa !9
  %121 = call ptr @cuddAddApplyRecur(ptr noundef %117, ptr noundef %118, ptr noundef %119, ptr noundef %120)
  store ptr %121, ptr %15, align 8, !tbaa !9
  %122 = load ptr, ptr %15, align 8, !tbaa !9
  %123 = icmp eq ptr %122, null
  br i1 %123, label %124, label %125

124:                                              ; preds = %116
  store ptr null, ptr %5, align 8
  store i32 1, ptr %21, align 4
  br label %192

125:                                              ; preds = %116
  %126 = load ptr, ptr %15, align 8, !tbaa !9
  %127 = ptrtoint ptr %126 to i64
  %128 = and i64 %127, -2
  %129 = inttoptr i64 %128 to ptr
  %130 = getelementptr inbounds nuw %struct.DdNode, ptr %129, i32 0, i32 1
  %131 = load i32, ptr %130, align 4, !tbaa !34
  %132 = add i32 %131, 1
  store i32 %132, ptr %130, align 4, !tbaa !34
  %133 = load ptr, ptr %6, align 8, !tbaa !3
  %134 = load ptr, ptr %7, align 8, !tbaa !8
  %135 = load ptr, ptr %12, align 8, !tbaa !9
  %136 = load ptr, ptr %14, align 8, !tbaa !9
  %137 = call ptr @cuddAddApplyRecur(ptr noundef %133, ptr noundef %134, ptr noundef %135, ptr noundef %136)
  store ptr %137, ptr %16, align 8, !tbaa !9
  %138 = load ptr, ptr %16, align 8, !tbaa !9
  %139 = icmp eq ptr %138, null
  br i1 %139, label %140, label %143

140:                                              ; preds = %125
  %141 = load ptr, ptr %6, align 8, !tbaa !3
  %142 = load ptr, ptr %15, align 8, !tbaa !9
  call void @Cudd_RecursiveDeref(ptr noundef %141, ptr noundef %142)
  store ptr null, ptr %5, align 8
  store i32 1, ptr %21, align 4
  br label %192

143:                                              ; preds = %125
  %144 = load ptr, ptr %16, align 8, !tbaa !9
  %145 = ptrtoint ptr %144 to i64
  %146 = and i64 %145, -2
  %147 = inttoptr i64 %146 to ptr
  %148 = getelementptr inbounds nuw %struct.DdNode, ptr %147, i32 0, i32 1
  %149 = load i32, ptr %148, align 4, !tbaa !34
  %150 = add i32 %149, 1
  store i32 %150, ptr %148, align 4, !tbaa !34
  %151 = load ptr, ptr %15, align 8, !tbaa !9
  %152 = load ptr, ptr %16, align 8, !tbaa !9
  %153 = icmp eq ptr %151, %152
  br i1 %153, label %154, label %156

154:                                              ; preds = %143
  %155 = load ptr, ptr %15, align 8, !tbaa !9
  br label %162

156:                                              ; preds = %143
  %157 = load ptr, ptr %6, align 8, !tbaa !3
  %158 = load i32, ptr %19, align 4, !tbaa !32
  %159 = load ptr, ptr %15, align 8, !tbaa !9
  %160 = load ptr, ptr %16, align 8, !tbaa !9
  %161 = call ptr @cuddUniqueInter(ptr noundef %157, i32 noundef %158, ptr noundef %159, ptr noundef %160)
  br label %162

162:                                              ; preds = %156, %154
  %163 = phi ptr [ %155, %154 ], [ %161, %156 ]
  store ptr %163, ptr %10, align 8, !tbaa !9
  %164 = load ptr, ptr %10, align 8, !tbaa !9
  %165 = icmp eq ptr %164, null
  br i1 %165, label %166, label %171

166:                                              ; preds = %162
  %167 = load ptr, ptr %6, align 8, !tbaa !3
  %168 = load ptr, ptr %15, align 8, !tbaa !9
  call void @Cudd_RecursiveDeref(ptr noundef %167, ptr noundef %168)
  %169 = load ptr, ptr %6, align 8, !tbaa !3
  %170 = load ptr, ptr %16, align 8, !tbaa !9
  call void @Cudd_RecursiveDeref(ptr noundef %169, ptr noundef %170)
  store ptr null, ptr %5, align 8
  store i32 1, ptr %21, align 4
  br label %192

171:                                              ; preds = %162
  %172 = load ptr, ptr %15, align 8, !tbaa !9
  %173 = ptrtoint ptr %172 to i64
  %174 = and i64 %173, -2
  %175 = inttoptr i64 %174 to ptr
  %176 = getelementptr inbounds nuw %struct.DdNode, ptr %175, i32 0, i32 1
  %177 = load i32, ptr %176, align 4, !tbaa !34
  %178 = add i32 %177, -1
  store i32 %178, ptr %176, align 4, !tbaa !34
  %179 = load ptr, ptr %16, align 8, !tbaa !9
  %180 = ptrtoint ptr %179 to i64
  %181 = and i64 %180, -2
  %182 = inttoptr i64 %181 to ptr
  %183 = getelementptr inbounds nuw %struct.DdNode, ptr %182, i32 0, i32 1
  %184 = load i32, ptr %183, align 4, !tbaa !34
  %185 = add i32 %184, -1
  store i32 %185, ptr %183, align 4, !tbaa !34
  %186 = load ptr, ptr %6, align 8, !tbaa !3
  %187 = load ptr, ptr %20, align 8, !tbaa !8
  %188 = load ptr, ptr %8, align 8, !tbaa !9
  %189 = load ptr, ptr %9, align 8, !tbaa !9
  %190 = load ptr, ptr %10, align 8, !tbaa !9
  call void @cuddCacheInsert2(ptr noundef %186, ptr noundef %187, ptr noundef %188, ptr noundef %189, ptr noundef %190)
  %191 = load ptr, ptr %10, align 8, !tbaa !9
  store ptr %191, ptr %5, align 8
  store i32 1, ptr %21, align 4
  br label %192

192:                                              ; preds = %171, %166, %140, %124, %38, %27
  call void @llvm.lifetime.end.p0(i64 8, ptr %20) #4
  call void @llvm.lifetime.end.p0(i64 4, ptr %19) #4
  call void @llvm.lifetime.end.p0(i64 4, ptr %18) #4
  call void @llvm.lifetime.end.p0(i64 4, ptr %17) #4
  call void @llvm.lifetime.end.p0(i64 8, ptr %16) #4
  call void @llvm.lifetime.end.p0(i64 8, ptr %15) #4
  call void @llvm.lifetime.end.p0(i64 8, ptr %14) #4
  call void @llvm.lifetime.end.p0(i64 8, ptr %13) #4
  call void @llvm.lifetime.end.p0(i64 8, ptr %12) #4
  call void @llvm.lifetime.end.p0(i64 8, ptr %11) #4
  call void @llvm.lifetime.end.p0(i64 8, ptr %10) #4
  %193 = load ptr, ptr %5, align 8
  ret ptr %193
}