; Function Attrs: nounwind uwtable
define ptr @cuddAddApplyRecur(ptr noundef %0, ptr noundef %1, ptr noundef %2, ptr noundef %3) local_unnamed_addr #0 {
  %5 = alloca ptr, align 8
  %6 = alloca ptr, align 8
  store ptr %2, ptr %5, align 8, !tbaa !26
  store ptr %3, ptr %6, align 8, !tbaa !26
  %7 = call ptr %1(ptr noundef %0, ptr noundef nonnull %5, ptr noundef nonnull %6) #5
  %.not = icmp eq ptr %7, null
  br i1 %.not, label %8, label %78

8:                                                ; preds = %4
  %9 = load ptr, ptr %5, align 8, !tbaa !26
  %10 = load ptr, ptr %6, align 8, !tbaa !26
  %11 = call ptr @cuddCacheLookup2(ptr noundef %0, ptr noundef %1, ptr noundef %9, ptr noundef %10) #5
  %.not60 = icmp eq ptr %11, null
  br i1 %.not60, label %12, label %78

12:                                               ; preds = %8
  %13 = load ptr, ptr %5, align 8, !tbaa !26
  %14 = load i32, ptr %13, align 8, !tbaa !27
  %15 = icmp eq i32 %14, 2147483647
  br i1 %15, label %22, label %16

16:                                               ; preds = %12
  %17 = getelementptr inbounds nuw i8, ptr %0, i64 312
  %18 = load ptr, ptr %17, align 8, !tbaa !28
  %19 = zext i32 %14 to i64
  %20 = getelementptr inbounds nuw i32, ptr %18, i64 %19
  %21 = load i32, ptr %20, align 4, !tbaa !29
  br label %22

22:                                               ; preds = %12, %16
  %23 = phi i32 [ %21, %16 ], [ 2147483647, %12 ]
  %24 = load ptr, ptr %6, align 8, !tbaa !26
  %25 = load i32, ptr %24, align 8, !tbaa !27
  %26 = icmp eq i32 %25, 2147483647
  br i1 %26, label %33, label %27

27:                                               ; preds = %22
  %28 = getelementptr inbounds nuw i8, ptr %0, i64 312
  %29 = load ptr, ptr %28, align 8, !tbaa !28
  %30 = zext i32 %25 to i64
  %31 = getelementptr inbounds nuw i32, ptr %29, i64 %30
  %32 = load i32, ptr %31, align 4, !tbaa !29
  br label %33

33:                                               ; preds = %22, %27
  %34 = phi i32 [ %32, %27 ], [ 2147483647, %22 ]
  %.not61 = icmp ugt i32 %23, %34
  br i1 %.not61, label %40, label %35

35:                                               ; preds = %33
  %36 = getelementptr inbounds nuw i8, ptr %13, i64 16
  %37 = load ptr, ptr %36, align 8, !tbaa !30
  %38 = getelementptr inbounds nuw i8, ptr %13, i64 24
  %39 = load ptr, ptr %38, align 8, !tbaa !30
  br label %40

40:                                               ; preds = %33, %35
  %.047 = phi i32 [ %14, %35 ], [ %25, %33 ]
  %.049 = phi ptr [ %39, %35 ], [ %13, %33 ]
  %.048 = phi ptr [ %37, %35 ], [ %13, %33 ]
  %.not62 = icmp ugt i32 %34, %23
  br i1 %.not62, label %46, label %41

41:                                               ; preds = %40
  %42 = getelementptr inbounds nuw i8, ptr %24, i64 16
  %43 = load ptr, ptr %42, align 8, !tbaa !30
  %44 = getelementptr inbounds nuw i8, ptr %24, i64 24
  %45 = load ptr, ptr %44, align 8, !tbaa !30
  br label %46

46:                                               ; preds = %40, %41
  %.051 = phi ptr [ %45, %41 ], [ %24, %40 ]
  %.050 = phi ptr [ %43, %41 ], [ %24, %40 ]
  %47 = call ptr @cuddAddApplyRecur(ptr noundef %0, ptr noundef %1, ptr noundef %.048, ptr noundef %.050)
  %48 = icmp eq ptr %47, null
  br i1 %48, label %78, label %49

49:                                               ; preds = %46
  %50 = ptrtoint ptr %47 to i64
  %51 = and i64 %50, -2
  %52 = inttoptr i64 %51 to ptr
  %53 = getelementptr inbounds nuw i8, ptr %52, i64 4
  %54 = load i32, ptr %53, align 4, !tbaa !31
  %55 = add i32 %54, 1
  store i32 %55, ptr %53, align 4, !tbaa !31
  %56 = call ptr @cuddAddApplyRecur(ptr noundef %0, ptr noundef %1, ptr noundef %.049, ptr noundef %.051)
  %57 = icmp eq ptr %56, null
  br i1 %57, label %58, label %59

58:                                               ; preds = %49
  call void @Cudd_RecursiveDeref(ptr noundef %0, ptr noundef nonnull %47) #5
  br label %78

59:                                               ; preds = %49
  %60 = ptrtoint ptr %56 to i64
  %61 = and i64 %60, -2
  %62 = inttoptr i64 %61 to ptr
  %63 = getelementptr inbounds nuw i8, ptr %62, i64 4
  %64 = load i32, ptr %63, align 4, !tbaa !31
  %65 = add i32 %64, 1
  store i32 %65, ptr %63, align 4, !tbaa !31
  %66 = icmp eq ptr %47, %56
  br i1 %66, label %.thread, label %67

67:                                               ; preds = %59
  %68 = call ptr @cuddUniqueInter(ptr noundef %0, i32 noundef %.047, ptr noundef nonnull %47, ptr noundef nonnull %56) #5
  %69 = icmp eq ptr %68, null
  br i1 %69, label %70, label %.thread

70:                                               ; preds = %67
  call void @Cudd_RecursiveDeref(ptr noundef %0, ptr noundef nonnull %47) #5
  call void @Cudd_RecursiveDeref(ptr noundef %0, ptr noundef nonnull %56) #5
  br label %78

.thread:                                          ; preds = %59, %67
  %71 = phi ptr [ %68, %67 ], [ %47, %59 ]
  %72 = load i32, ptr %53, align 4, !tbaa !31
  %73 = add i32 %72, -1
  store i32 %73, ptr %53, align 4, !tbaa !31
  %74 = load i32, ptr %63, align 4, !tbaa !31
  %75 = add i32 %74, -1
  store i32 %75, ptr %63, align 4, !tbaa !31
  %76 = load ptr, ptr %5, align 8, !tbaa !26
  %77 = load ptr, ptr %6, align 8, !tbaa !26
  call void @cuddCacheInsert2(ptr noundef %0, ptr noundef %1, ptr noundef %76, ptr noundef %77, ptr noundef nonnull %71) #5
  br label %78

78:                                               ; preds = %46, %8, %4, %.thread, %70, %58
  %.0 = phi ptr [ null, %58 ], [ null, %70 ], [ %71, %.thread ], [ %7, %4 ], [ %11, %8 ], [ null, %46 ]
  ret ptr %.0
}